; ModuleID = 'source-C-CXX/36/1566.cpp'
source_filename = "source-C-CXX/36/1566.cpp"
target datalayout = "e-m:e-p270:32:32-p271:32:32-p272:64:64-i64:64-f80:128-n8:16:32:64-S128"
target triple = "x86_64-pc-linux-gnu"

%"class.std::ios_base::Init" = type { i8 }
%"class.std::basic_istream" = type { i32 (...)**, i64, %"class.std::basic_ios" }
%"class.std::basic_ios" = type { %"class.std::ios_base", %"class.std::basic_ostream"*, i8, i8, %"class.std::basic_streambuf"*, %"class.std::ctype"*, %"class.std::num_put"*, %"class.std::num_get"* }
%"class.std::ios_base" = type { i32 (...)**, i64, i64, i32, i32, i32, %"struct.std::ios_base::_Callback_list"*, %"struct.std::ios_base::_Words", [8 x %"struct.std::ios_base::_Words"], i32, %"struct.std::ios_base::_Words"*, %"class.std::locale" }
%"struct.std::ios_base::_Callback_list" = type { %"struct.std::ios_base::_Callback_list"*, void (i32, %"class.std::ios_base"*, i32)*, i32, i32 }
%"struct.std::ios_base::_Words" = type { i8*, i64 }
%"class.std::locale" = type { %"class.std::locale::_Impl"* }
%"class.std::locale::_Impl" = type { i32, %"class.std::locale::facet"**, i64, %"class.std::locale::facet"**, i8** }
%"class.std::locale::facet" = type <{ i32 (...)**, i32, [4 x i8] }>
%"class.std::basic_ostream" = type { i32 (...)**, %"class.std::basic_ios" }
%"class.std::basic_streambuf" = type { i32 (...)**, i8*, i8*, i8*, i8*, i8*, i8*, %"class.std::locale" }
%"class.std::ctype" = type <{ %"class.std::locale::facet.base", [4 x i8], %struct.__locale_struct*, i8, [7 x i8], i32*, i32*, i16*, i8, [256 x i8], [256 x i8], i8, [6 x i8] }>
%"class.std::locale::facet.base" = type <{ i32 (...)**, i32 }>
%struct.__locale_struct = type { [13 x %struct.__locale_data*], i16*, i32*, i32*, [13 x i8*] }
%struct.__locale_data = type opaque
%"class.std::num_put" = type { %"class.std::locale::facet.base", [4 x i8] }
%"class.std::num_get" = type { %"class.std::locale::facet.base", [4 x i8] }
%struct._IO_FILE = type { i32, i8*, i8*, i8*, i8*, i8*, i8*, i8*, i8*, i8*, i8*, i8*, %struct._IO_marker*, %struct._IO_FILE*, i32, i32, i64, i16, i8, [1 x i8], i8*, i64, %struct._IO_codecvt*, %struct._IO_wide_data*, %struct._IO_FILE*, i8*, i64, i32, [20 x i8] }
%struct._IO_marker = type opaque
%struct._IO_codecvt = type opaque
%struct._IO_wide_data = type opaque

@_ZStL8__ioinit = internal global %"class.std::ios_base::Init" zeroinitializer, align 1
@__dso_handle = external hidden global i8
@_ZSt3cin = external global %"class.std::basic_istream", align 8
@_ZSt4cout = external global %"class.std::basic_ostream", align 8
@.str = private unnamed_addr constant [3 x i8] c"no\00", align 1
@stdin = external local_unnamed_addr global %struct._IO_FILE*, align 8
@stdout = external local_unnamed_addr global %struct._IO_FILE*, align 8
@llvm.global_ctors = appending global [1 x { i32, void ()*, i8* }] [{ i32, void ()*, i8* } { i32 65535, void ()* @_GLOBAL__sub_I_1566.cpp, i8* null }]

declare void @_ZNSt8ios_base4InitC1Ev(%"class.std::ios_base::Init"* nonnull align 1 dereferenceable(1)) unnamed_addr #0

; Function Attrs: nounwind
declare void @_ZNSt8ios_base4InitD1Ev(%"class.std::ios_base::Init"* nonnull align 1 dereferenceable(1)) unnamed_addr #1

; Function Attrs: nofree nounwind
declare i32 @__cxa_atexit(void (i8*)*, i8*, i8*) local_unnamed_addr #2

; Function Attrs: mustprogress norecurse sspstrong uwtable
define dso_local i32 @main() local_unnamed_addr #3 {
  %1 = alloca i32, align 4
  %2 = alloca [110000 x i32], align 16
  %3 = bitcast i32* %1 to i8*
  call void @llvm.lifetime.start.p0i8(i64 4, i8* nonnull %3) #9
  %4 = call nonnull align 8 dereferenceable(16) %"class.std::basic_istream"* @_ZNSirsERi(%"class.std::basic_istream"* nonnull align 8 dereferenceable(16) @_ZSt3cin, i32* nonnull align 4 dereferenceable(4) %1)
  %5 = load %struct._IO_FILE*, %struct._IO_FILE** @stdin, align 8, !tbaa !5
  %6 = call i32 @getc(%struct._IO_FILE* %5)
  %7 = bitcast [110000 x i32]* %2 to i8*
  %8 = load i32, i32* %1, align 4, !tbaa !9
  %9 = icmp slt i32 %8, 1
  br i1 %9, label %10, label %11

10:                                               ; preds = %163, %0
  call void @llvm.lifetime.end.p0i8(i64 4, i8* nonnull %3) #9
  ret i32 0

11:                                               ; preds = %0, %163
  %12 = phi i32 [ %27, %163 ], [ undef, %0 ]
  %13 = phi i32 [ %167, %163 ], [ 1, %0 ]
  call void @llvm.lifetime.start.p0i8(i64 440000, i8* nonnull %7) #9
  br label %14

14:                                               ; preds = %11, %23
  %15 = phi i64 [ 1, %11 ], [ %24, %23 ]
  %16 = load %struct._IO_FILE*, %struct._IO_FILE** @stdin, align 8, !tbaa !5
  %17 = call i32 @getc(%struct._IO_FILE* %16)
  %18 = getelementptr inbounds [110000 x i32], [110000 x i32]* %2, i64 0, i64 %15
  store i32 %17, i32* %18, align 4, !tbaa !9
  %19 = icmp eq i32 %17, 10
  br i1 %19, label %20, label %23

20:                                               ; preds = %14
  %21 = trunc i64 %15 to i32
  %22 = add nsw i32 %21, -1
  br label %26

23:                                               ; preds = %14
  %24 = add nuw nsw i64 %15, 1
  %25 = icmp eq i64 %24, 100001
  br i1 %25, label %26, label %14, !llvm.loop !11

26:                                               ; preds = %23, %20
  %27 = phi i32 [ %22, %20 ], [ %12, %23 ]
  %28 = icmp slt i32 %27, 1
  br i1 %28, label %137, label %29

29:                                               ; preds = %26
  %30 = add nuw i32 %27, 1
  %31 = zext i32 %30 to i64
  %32 = add nsw i64 %31, -1
  %33 = add nsw i64 %31, -9
  %34 = lshr i64 %33, 3
  %35 = add nuw nsw i64 %34, 1
  %36 = icmp ult i64 %32, 8
  %37 = and i64 %32, -8
  %38 = or i64 %37, 1
  %39 = and i64 %35, 1
  %40 = icmp ult i64 %33, 8
  %41 = and i64 %35, 4611686018427387902
  %42 = icmp eq i64 %39, 0
  %43 = icmp eq i64 %32, %37
  br label %44

44:                                               ; preds = %29, %134
  %45 = phi i64 [ 1, %29 ], [ %135, %134 ]
  %46 = getelementptr inbounds [110000 x i32], [110000 x i32]* %2, i64 0, i64 %45
  %47 = load i32, i32* %46, align 4, !tbaa !9
  br i1 %36, label %112, label %48

48:                                               ; preds = %44
  %49 = insertelement <4 x i32> poison, i32 %47, i32 0
  %50 = shufflevector <4 x i32> %49, <4 x i32> poison, <4 x i32> zeroinitializer
  %51 = insertelement <4 x i32> poison, i32 %47, i32 0
  %52 = shufflevector <4 x i32> %51, <4 x i32> poison, <4 x i32> zeroinitializer
  br i1 %40, label %87, label %53

53:                                               ; preds = %48, %53
  %54 = phi i64 [ %84, %53 ], [ 0, %48 ]
  %55 = phi <4 x i32> [ %82, %53 ], [ zeroinitializer, %48 ]
  %56 = phi <4 x i32> [ %83, %53 ], [ zeroinitializer, %48 ]
  %57 = phi i64 [ %85, %53 ], [ %41, %48 ]
  %58 = or i64 %54, 1
  %59 = getelementptr inbounds [110000 x i32], [110000 x i32]* %2, i64 0, i64 %58
  %60 = bitcast i32* %59 to <4 x i32>*
  %61 = load <4 x i32>, <4 x i32>* %60, align 4, !tbaa !9
  %62 = getelementptr inbounds i32, i32* %59, i64 4
  %63 = bitcast i32* %62 to <4 x i32>*
  %64 = load <4 x i32>, <4 x i32>* %63, align 4, !tbaa !9
  %65 = icmp eq <4 x i32> %61, %50
  %66 = icmp eq <4 x i32> %64, %52
  %67 = zext <4 x i1> %65 to <4 x i32>
  %68 = zext <4 x i1> %66 to <4 x i32>
  %69 = add <4 x i32> %55, %67
  %70 = add <4 x i32> %56, %68
  %71 = or i64 %54, 9
  %72 = getelementptr inbounds [110000 x i32], [110000 x i32]* %2, i64 0, i64 %71
  %73 = bitcast i32* %72 to <4 x i32>*
  %74 = load <4 x i32>, <4 x i32>* %73, align 4, !tbaa !9
  %75 = getelementptr inbounds i32, i32* %72, i64 4
  %76 = bitcast i32* %75 to <4 x i32>*
  %77 = load <4 x i32>, <4 x i32>* %76, align 4, !tbaa !9
  %78 = icmp eq <4 x i32> %74, %50
  %79 = icmp eq <4 x i32> %77, %52
  %80 = zext <4 x i1> %78 to <4 x i32>
  %81 = zext <4 x i1> %79 to <4 x i32>
  %82 = add <4 x i32> %69, %80
  %83 = add <4 x i32> %70, %81
  %84 = add nuw i64 %54, 16
  %85 = add i64 %57, -2
  %86 = icmp eq i64 %85, 0
  br i1 %86, label %87, label %53, !llvm.loop !13

87:                                               ; preds = %53, %48
  %88 = phi <4 x i32> [ undef, %48 ], [ %82, %53 ]
  %89 = phi <4 x i32> [ undef, %48 ], [ %83, %53 ]
  %90 = phi i64 [ 0, %48 ], [ %84, %53 ]
  %91 = phi <4 x i32> [ zeroinitializer, %48 ], [ %82, %53 ]
  %92 = phi <4 x i32> [ zeroinitializer, %48 ], [ %83, %53 ]
  br i1 %42, label %107, label %93

93:                                               ; preds = %87
  %94 = or i64 %90, 1
  %95 = getelementptr inbounds [110000 x i32], [110000 x i32]* %2, i64 0, i64 %94
  %96 = getelementptr inbounds i32, i32* %95, i64 4
  %97 = bitcast i32* %96 to <4 x i32>*
  %98 = load <4 x i32>, <4 x i32>* %97, align 4, !tbaa !9
  %99 = icmp eq <4 x i32> %98, %52
  %100 = zext <4 x i1> %99 to <4 x i32>
  %101 = add <4 x i32> %92, %100
  %102 = bitcast i32* %95 to <4 x i32>*
  %103 = load <4 x i32>, <4 x i32>* %102, align 4, !tbaa !9
  %104 = icmp eq <4 x i32> %103, %50
  %105 = zext <4 x i1> %104 to <4 x i32>
  %106 = add <4 x i32> %91, %105
  br label %107

107:                                              ; preds = %87, %93
  %108 = phi <4 x i32> [ %88, %87 ], [ %106, %93 ]
  %109 = phi <4 x i32> [ %89, %87 ], [ %101, %93 ]
  %110 = add <4 x i32> %109, %108
  %111 = call i32 @llvm.vector.reduce.add.v4i32(<4 x i32> %110)
  br i1 %43, label %115, label %112

112:                                              ; preds = %44, %107
  %113 = phi i64 [ 1, %44 ], [ %38, %107 ]
  %114 = phi i32 [ 0, %44 ], [ %111, %107 ]
  br label %118

115:                                              ; preds = %118, %107
  %116 = phi i32 [ %111, %107 ], [ %125, %118 ]
  %117 = icmp eq i32 %116, 1
  br i1 %117, label %128, label %134

118:                                              ; preds = %112, %118
  %119 = phi i64 [ %126, %118 ], [ %113, %112 ]
  %120 = phi i32 [ %125, %118 ], [ %114, %112 ]
  %121 = getelementptr inbounds [110000 x i32], [110000 x i32]* %2, i64 0, i64 %119
  %122 = load i32, i32* %121, align 4, !tbaa !9
  %123 = icmp eq i32 %122, %47
  %124 = zext i1 %123 to i32
  %125 = add nuw nsw i32 %120, %124
  %126 = add nuw nsw i64 %119, 1
  %127 = icmp eq i64 %126, %31
  br i1 %127, label %115, label %118, !llvm.loop !15

128:                                              ; preds = %115
  %129 = and i64 %45, 4294967295
  %130 = getelementptr inbounds [110000 x i32], [110000 x i32]* %2, i64 0, i64 %129
  %131 = load i32, i32* %130, align 4, !tbaa !9
  %132 = load %struct._IO_FILE*, %struct._IO_FILE** @stdout, align 8, !tbaa !5
  %133 = call i32 @putc(i32 %131, %struct._IO_FILE* %132)
  br label %139

134:                                              ; preds = %115
  %135 = add nuw nsw i64 %45, 1
  %136 = icmp eq i64 %135, %31
  br i1 %136, label %137, label %44, !llvm.loop !17

137:                                              ; preds = %134, %26
  %138 = call nonnull align 8 dereferenceable(8) %"class.std::basic_ostream"* @_ZSt16__ostream_insertIcSt11char_traitsIcEERSt13basic_ostreamIT_T0_ES6_PKS3_l(%"class.std::basic_ostream"* nonnull align 8 dereferenceable(8) @_ZSt4cout, i8* nonnull getelementptr inbounds ([3 x i8], [3 x i8]* @.str, i64 0, i64 0), i64 2)
  br label %139

139:                                              ; preds = %128, %137
  %140 = load i8*, i8** bitcast (%"class.std::basic_ostream"* @_ZSt4cout to i8**), align 8, !tbaa !18
  %141 = getelementptr i8, i8* %140, i64 -24
  %142 = bitcast i8* %141 to i64*
  %143 = load i64, i64* %142, align 8
  %144 = add nsw i64 %143, 240
  %145 = getelementptr inbounds i8, i8* bitcast (%"class.std::basic_ostream"* @_ZSt4cout to i8*), i64 %144
  %146 = bitcast i8* %145 to %"class.std::ctype"**
  %147 = load %"class.std::ctype"*, %"class.std::ctype"** %146, align 8, !tbaa !20
  %148 = icmp eq %"class.std::ctype"* %147, null
  br i1 %148, label %149, label %150

149:                                              ; preds = %139
  call void @_ZSt16__throw_bad_castv() #10
  unreachable

150:                                              ; preds = %139
  %151 = getelementptr inbounds %"class.std::ctype", %"class.std::ctype"* %147, i64 0, i32 8
  %152 = load i8, i8* %151, align 8, !tbaa !23
  %153 = icmp eq i8 %152, 0
  br i1 %153, label %157, label %154

154:                                              ; preds = %150
  %155 = getelementptr inbounds %"class.std::ctype", %"class.std::ctype"* %147, i64 0, i32 9, i64 10
  %156 = load i8, i8* %155, align 1, !tbaa !25
  br label %163

157:                                              ; preds = %150
  call void @_ZNKSt5ctypeIcE13_M_widen_initEv(%"class.std::ctype"* nonnull align 8 dereferenceable(570) %147)
  %158 = bitcast %"class.std::ctype"* %147 to i8 (%"class.std::ctype"*, i8)***
  %159 = load i8 (%"class.std::ctype"*, i8)**, i8 (%"class.std::ctype"*, i8)*** %158, align 8, !tbaa !18
  %160 = getelementptr inbounds i8 (%"class.std::ctype"*, i8)*, i8 (%"class.std::ctype"*, i8)** %159, i64 6
  %161 = load i8 (%"class.std::ctype"*, i8)*, i8 (%"class.std::ctype"*, i8)** %160, align 8
  %162 = call signext i8 %161(%"class.std::ctype"* nonnull align 8 dereferenceable(570) %147, i8 signext 10)
  br label %163

163:                                              ; preds = %154, %157
  %164 = phi i8 [ %156, %154 ], [ %162, %157 ]
  %165 = call nonnull align 8 dereferenceable(8) %"class.std::basic_ostream"* @_ZNSo3putEc(%"class.std::basic_ostream"* nonnull align 8 dereferenceable(8) @_ZSt4cout, i8 signext %164)
  %166 = call nonnull align 8 dereferenceable(8) %"class.std::basic_ostream"* @_ZNSo5flushEv(%"class.std::basic_ostream"* nonnull align 8 dereferenceable(8) %165)
  call void @llvm.lifetime.end.p0i8(i64 440000, i8* nonnull %7) #9
  %167 = add nuw nsw i32 %13, 1
  %168 = load i32, i32* %1, align 4, !tbaa !9
  %169 = icmp slt i32 %13, %168
  br i1 %169, label %11, label %10, !llvm.loop !26
}

; Function Attrs: argmemonly mustprogress nofree nosync nounwind willreturn
declare void @llvm.lifetime.start.p0i8(i64 immarg, i8* nocapture) #4

declare nonnull align 8 dereferenceable(16) %"class.std::basic_istream"* @_ZNSirsERi(%"class.std::basic_istream"* nonnull align 8 dereferenceable(16), i32* nonnull align 4 dereferenceable(4)) local_unnamed_addr #0

; Function Attrs: argmemonly mustprogress nofree nosync nounwind willreturn
declare void @llvm.lifetime.end.p0i8(i64 immarg, i8* nocapture) #4

; Function Attrs: nofree nounwind
declare noundef i32 @getc(%struct._IO_FILE* nocapture noundef) local_unnamed_addr #5

; Function Attrs: nofree nounwind
declare noundef i32 @putc(i32 noundef, %struct._IO_FILE* nocapture noundef) local_unnamed_addr #5

declare nonnull align 8 dereferenceable(8) %"class.std::basic_ostream"* @_ZSt16__ostream_insertIcSt11char_traitsIcEERSt13basic_ostreamIT_T0_ES6_PKS3_l(%"class.std::basic_ostream"* nonnull align 8 dereferenceable(8), i8*, i64) local_unnamed_addr #0

declare nonnull align 8 dereferenceable(8) %"class.std::basic_ostream"* @_ZNSo3putEc(%"class.std::basic_ostream"* nonnull align 8 dereferenceable(8), i8 signext) local_unnamed_addr #0

declare nonnull align 8 dereferenceable(8) %"class.std::basic_ostream"* @_ZNSo5flushEv(%"class.std::basic_ostream"* nonnull align 8 dereferenceable(8)) local_unnamed_addr #0

; Function Attrs: noreturn
declare void @_ZSt16__throw_bad_castv() local_unnamed_addr #6

declare void @_ZNKSt5ctypeIcE13_M_widen_initEv(%"class.std::ctype"* nonnull align 8 dereferenceable(570)) local_unnamed_addr #0

; Function Attrs: sspstrong uwtable
define internal void @_GLOBAL__sub_I_1566.cpp() #7 section ".text.startup" {
  tail call void @_ZNSt8ios_base4InitC1Ev(%"class.std::ios_base::Init"* nonnull align 1 dereferenceable(1) @_ZStL8__ioinit)
  %1 = tail call i32 @__cxa_atexit(void (i8*)* bitcast (void (%"class.std::ios_base::Init"*)* @_ZNSt8ios_base4InitD1Ev to void (i8*)*), i8* getelementptr inbounds (%"class.std::ios_base::Init", %"class.std::ios_base::Init"* @_ZStL8__ioinit, i64 0, i32 0), i8* nonnull @__dso_handle) #9
  ret void
}

; Function Attrs: nofree nosync nounwind readnone willreturn
declare i32 @llvm.vector.reduce.add.v4i32(<4 x i32>) #8


!llvm.module.flags = !{!0, !1, !2, !3}
!llvm.ident = !{!4}

!0 = !{i32 1, !"wchar_size", i32 4}
!1 = !{i32 7, !"PIC Level", i32 2}
!2 = !{i32 7, !"PIE Level", i32 2}
!3 = !{i32 7, !"uwtable", i32 1}
!4 = !{!"clang version 13.0.0"}
!5 = !{!6, !6, i64 0}
!6 = !{!"any pointer", !7, i64 0}
!7 = !{!"omnipotent char", !8, i64 0}
!8 = !{!"Simple C++ TBAA"}
!9 = !{!10, !10, i64 0}
!10 = !{!"int", !7, i64 0}
!11 = distinct !{!11, !12}
!12 = !{!"llvm.loop.mustprogress"}
!13 = distinct !{!13, !12, !14}
!14 = !{!"llvm.loop.isvectorized", i32 1}
!15 = distinct !{!15, !12, !16, !14}
!16 = !{!"llvm.loop.unroll.runtime.disable"}
!17 = distinct !{!17, !12}
!18 = !{!19, !19, i64 0}
!19 = !{!"vtable pointer", !8, i64 0}
!20 = !{!21, !6, i64 240}
!21 = !{!"_ZTSSt9basic_iosIcSt11char_traitsIcEE", !6, i64 216, !7, i64 224, !22, i64 225, !6, i64 232, !6, i64 240, !6, i64 248, !6, i64 256}
!22 = !{!"bool", !7, i64 0}
!23 = !{!24, !7, i64 56}
!24 = !{!"_ZTSSt5ctypeIcE", !6, i64 16, !22, i64 24, !6, i64 32, !6, i64 40, !6, i64 48, !7, i64 56, !7, i64 57, !7, i64 313, !7, i64 569}
!25 = !{!7, !7, i64 0}
!26 = distinct !{!26, !12}
